target datalayout = "e-m:e-p270:32:32-p271:32:32-p272:64:64-i64:64-i128:128-f80:128-n8:16:32:64-S128"
target triple = "x86_64-pc-linux-gnu"

%struct.MPIR_PROCDESC = type { ptr, ptr, i32 }
%struct.reattach_tasks_response_msg = type { ptr, i32, i32, ptr, ptr, ptr }

@.str.3 = private unnamed_addr constant [26 x i8] c"Node %s: no tasks running\00", align 1
@.str.4 = private unnamed_addr constant [18 x i8] c"Node %s, %d tasks\00", align 1
@MPIR_proctable = external global ptr, align 8
@.str.5 = private unnamed_addr constant [44 x i8] c"\09Task id %u has pid %u, executable name: %s\00", align 1
@.str.6 = private unnamed_addr constant [52 x i8] c"Unrecognized response to REQUEST_REATTACH_TASKS: %d\00", align 1

; Function Attrs: nounwind uwtable
define dso_local void @_handle_response_msg(i32 noundef %0, ptr noundef %1, ptr noundef %2) #0 {
  %4 = alloca i32, align 4
  %5 = alloca ptr, align 8
  %6 = alloca ptr, align 8
  %7 = alloca ptr, align 8
  %8 = alloca ptr, align 8
  %9 = alloca i32, align 4
  store i32 %0, ptr %4, align 4
  store ptr %1, ptr %5, align 8
  store ptr %2, ptr %6, align 8
  call void @llvm.lifetime.start.p0(i64 8, ptr %7) #10
  call void @llvm.lifetime.start.p0(i64 8, ptr %8) #10
  call void @llvm.lifetime.start.p0(i64 4, ptr %9) #10
  %10 = load i32, ptr %4, align 4
  switch i32 %10, label %134 [
    i32 6008, label %11
  ]

11:                                               ; preds = %3
  %12 = load ptr, ptr %5, align 8
  store ptr %12, ptr %7, align 8
  %13 = load ptr, ptr %7, align 8
  %14 = getelementptr inbounds nuw %struct.reattach_tasks_response_msg, ptr %13, i32 0, i32 1
  %15 = load i32, ptr %14, align 8
  %16 = icmp ne i32 %15, 0
  br i1 %16, label %17, label %31

17:                                               ; preds = %11
  br label %18

18:                                               ; preds = %17
  br label %19

19:                                               ; preds = %18
  %20 = call i32 @get_log_level()
  %21 = icmp sge i32 %20, 3
  br i1 %21, label %22, label %26

22:                                               ; preds = %19
  %23 = load ptr, ptr %7, align 8
  %24 = getelementptr inbounds nuw %struct.reattach_tasks_response_msg, ptr %23, i32 0, i32 0
  %25 = load ptr, ptr %24, align 8
  call void (i32, ptr, ...) @log_var(i32 noundef 3, ptr noundef @.str.3, ptr noundef %25)
  br label %26

26:                                               ; preds = %22, %19
  br label %27

27:                                               ; preds = %26
  br label %28

28:                                               ; preds = %27
  br label %29

29:                                               ; preds = %28
  br label %30

30:                                               ; preds = %29
  br label %137

31:                                               ; preds = %11
  br label %32

32:                                               ; preds = %31
  br label %33

33:                                               ; preds = %32
  %34 = call i32 @get_log_level()
  %35 = icmp sge i32 %34, 5
  br i1 %35, label %36, label %43

36:                                               ; preds = %33
  %37 = load ptr, ptr %7, align 8
  %38 = getelementptr inbounds nuw %struct.reattach_tasks_response_msg, ptr %37, i32 0, i32 0
  %39 = load ptr, ptr %38, align 8
  %40 = load ptr, ptr %7, align 8
  %41 = getelementptr inbounds nuw %struct.reattach_tasks_response_msg, ptr %40, i32 0, i32 2
  %42 = load i32, ptr %41, align 4
  call void (i32, ptr, ...) @log_var(i32 noundef 5, ptr noundef @.str.4, ptr noundef %39, i32 noundef %42)
  br label %43

43:                                               ; preds = %36, %33
  br label %44

44:                                               ; preds = %43
  br label %45

45:                                               ; preds = %44
  br label %46

46:                                               ; preds = %45
  br label %47

47:                                               ; preds = %46
  store i32 0, ptr %9, align 4
  br label %48

48:                                               ; preds = %130, %47
  %49 = load i32, ptr %9, align 4
  %50 = load ptr, ptr %7, align 8
  %51 = getelementptr inbounds nuw %struct.reattach_tasks_response_msg, ptr %50, i32 0, i32 2
  %52 = load i32, ptr %51, align 4
  %53 = icmp ult i32 %49, %52
  br i1 %53, label %54, label %133

54:                                               ; preds = %48
  %55 = load ptr, ptr %6, align 8
  %56 = load ptr, ptr %7, align 8
  %57 = getelementptr inbounds nuw %struct.reattach_tasks_response_msg, ptr %56, i32 0, i32 3
  %58 = load ptr, ptr %57, align 8
  %59 = load i32, ptr %9, align 4
  %60 = sext i32 %59 to i64
  %61 = getelementptr inbounds i32, ptr %58, i64 %60
  %62 = load i32, ptr %61, align 4
  %63 = zext i32 %62 to i64
  call void @bit_set(ptr noundef %55, i64 noundef %63)
  %64 = load ptr, ptr @MPIR_proctable, align 8
  %65 = load ptr, ptr %7, align 8
  %66 = getelementptr inbounds nuw %struct.reattach_tasks_response_msg, ptr %65, i32 0, i32 3
  %67 = load ptr, ptr %66, align 8
  %68 = load i32, ptr %9, align 4
  %69 = sext i32 %68 to i64
  %70 = getelementptr inbounds i32, ptr %67, i64 %69
  %71 = load i32, ptr %70, align 4
  %72 = zext i32 %71 to i64
  %73 = getelementptr inbounds nuw %struct.MPIR_PROCDESC, ptr %64, i64 %72
  store ptr %73, ptr %8, align 8
  %74 = load ptr, ptr %7, align 8
  %75 = getelementptr inbounds nuw %struct.reattach_tasks_response_msg, ptr %74, i32 0, i32 0
  %76 = load ptr, ptr %75, align 8
  %77 = call ptr @xstrdup(ptr noundef %76)
  %78 = load ptr, ptr %8, align 8
  %79 = getelementptr inbounds nuw %struct.MPIR_PROCDESC, ptr %78, i32 0, i32 0
  store ptr %77, ptr %79, align 8
  %80 = load ptr, ptr %7, align 8
  %81 = getelementptr inbounds nuw %struct.reattach_tasks_response_msg, ptr %80, i32 0, i32 5
  %82 = load ptr, ptr %81, align 8
  %83 = load i32, ptr %9, align 4
  %84 = sext i32 %83 to i64
  %85 = getelementptr inbounds ptr, ptr %82, i64 %84
  %86 = load ptr, ptr %85, align 8
  %87 = call ptr @xstrdup(ptr noundef %86)
  %88 = load ptr, ptr %8, align 8
  %89 = getelementptr inbounds nuw %struct.MPIR_PROCDESC, ptr %88, i32 0, i32 1
  store ptr %87, ptr %89, align 8
  %90 = load ptr, ptr %7, align 8
  %91 = getelementptr inbounds nuw %struct.reattach_tasks_response_msg, ptr %90, i32 0, i32 4
  %92 = load ptr, ptr %91, align 8
  %93 = load i32, ptr %9, align 4
  %94 = sext i32 %93 to i64
  %95 = getelementptr inbounds i32, ptr %92, i64 %94
  %96 = load i32, ptr %95, align 4
  %97 = load ptr, ptr %8, align 8
  %98 = getelementptr inbounds nuw %struct.MPIR_PROCDESC, ptr %97, i32 0, i32 2
  store i32 %96, ptr %98, align 8
  br label %99

99:                                               ; preds = %54
  br label %100

100:                                              ; preds = %99
  %101 = call i32 @get_log_level()
  %102 = icmp sge i32 %101, 5
  br i1 %102, label %103, label %125

103:                                              ; preds = %100
  %104 = load ptr, ptr %7, align 8
  %105 = getelementptr inbounds nuw %struct.reattach_tasks_response_msg, ptr %104, i32 0, i32 3
  %106 = load ptr, ptr %105, align 8
  %107 = load i32, ptr %9, align 4
  %108 = sext i32 %107 to i64
  %109 = getelementptr inbounds i32, ptr %106, i64 %108
  %110 = load i32, ptr %109, align 4
  %111 = load ptr, ptr %7, align 8
  %112 = getelementptr inbounds nuw %struct.reattach_tasks_response_msg, ptr %111, i32 0, i32 4
  %113 = load ptr, ptr %112, align 8
  %114 = load i32, ptr %9, align 4
  %115 = sext i32 %114 to i64
  %116 = getelementptr inbounds i32, ptr %113, i64 %115
  %117 = load i32, ptr %116, align 4
  %118 = load ptr, ptr %7, align 8
  %119 = getelementptr inbounds nuw %struct.reattach_tasks_response_msg, ptr %118, i32 0, i32 5
  %120 = load ptr, ptr %119, align 8
  %121 = load i32, ptr %9, align 4
  %122 = sext i32 %121 to i64
  %123 = getelementptr inbounds ptr, ptr %120, i64 %122
  %124 = load ptr, ptr %123, align 8
  call void (i32, ptr, ...) @log_var(i32 noundef 5, ptr noundef @.str.5, i32 noundef %110, i32 noundef %117, ptr noundef %124)
  br label %125

125:                                              ; preds = %103, %100
  br label %126

126:                                              ; preds = %125
  br label %127

127:                                              ; preds = %126
  br label %128

128:                                              ; preds = %127
  br label %129

129:                                              ; preds = %128
  br label %130

130:                                              ; preds = %129
  %131 = load i32, ptr %9, align 4
  %132 = add nsw i32 %131, 1
  store i32 %132, ptr %9, align 4
  br label %48, !llvm.loop !20

133:                                              ; preds = %48
  br label %137

134:                                              ; preds = %3
  %135 = load i32, ptr %4, align 4
  %136 = call i32 (ptr, ...) @error(ptr noundef @.str.6, i32 noundef %135)
  br label %137

137:                                              ; preds = %134, %133, %30
  call void @llvm.lifetime.end.p0(i64 4, ptr %9) #10
  call void @llvm.lifetime.end.p0(i64 8, ptr %8) #10
  call void @llvm.lifetime.end.p0(i64 8, ptr %7) #10
  ret void
}