; Function Attrs: nounwind uwtable
define dso_local void @_handle_response_msg(i32 noundef %0, ptr noundef readonly captures(none) %1, ptr noundef %2) local_unnamed_addr #0 {
  %cond = icmp eq i32 %0, 6008
  br i1 %cond, label %4, label %62

4:                                                ; preds = %3
  %5 = getelementptr inbounds nuw i8, ptr %1, i64 8
  %6 = load i32, ptr %5, align 8
  %.not = icmp eq i32 %6, 0
  %7 = tail call i32 @get_log_level() #14
  br i1 %.not, label %12, label %8

8:                                                ; preds = %4
  %9 = icmp sgt i32 %7, 2
  br i1 %9, label %10, label %.loopexit

10:                                               ; preds = %8
  %11 = load ptr, ptr %1, align 8
  tail call void (i32, ptr, ...) @log_var(i32 noundef 3, ptr noundef nonnull @.str.3, ptr noundef %11) #14
  br label %.loopexit

12:                                               ; preds = %4
  %13 = icmp sgt i32 %7, 4
  br i1 %13, label %14, label %18

14:                                               ; preds = %12
  %15 = load ptr, ptr %1, align 8
  %16 = getelementptr inbounds nuw i8, ptr %1, i64 12
  %17 = load i32, ptr %16, align 4
  tail call void (i32, ptr, ...) @log_var(i32 noundef 5, ptr noundef nonnull @.str.4, ptr noundef %15, i32 noundef %17) #14
  br label %18

18:                                               ; preds = %14, %12
  %19 = getelementptr inbounds nuw i8, ptr %1, i64 12
  %20 = load i32, ptr %19, align 4
  %.not30 = icmp eq i32 %20, 0
  br i1 %.not30, label %.loopexit, label %.lr.ph

.lr.ph:                                           ; preds = %18
  %21 = getelementptr inbounds nuw i8, ptr %1, i64 16
  %22 = getelementptr inbounds nuw i8, ptr %1, i64 32
  %23 = getelementptr inbounds nuw i8, ptr %1, i64 24
  br label %24

24:                                               ; preds = %.lr.ph, %58
  %indvars.iv = phi i64 [ 0, %.lr.ph ], [ %indvars.iv.next, %58 ]
  %25 = load ptr, ptr %21, align 8
  %26 = getelementptr inbounds nuw i32, ptr %25, i64 %indvars.iv
  %27 = load i32, ptr %26, align 4
  %28 = zext i32 %27 to i64
  tail call void @bit_set(ptr noundef %2, i64 noundef %28) #14
  %29 = load ptr, ptr @MPIR_proctable, align 8
  %30 = load ptr, ptr %21, align 8
  %31 = getelementptr inbounds nuw i32, ptr %30, i64 %indvars.iv
  %32 = load i32, ptr %31, align 4
  %33 = zext i32 %32 to i64
  %34 = getelementptr inbounds nuw %struct.MPIR_PROCDESC, ptr %29, i64 %33
  %35 = load ptr, ptr %1, align 8
  %36 = tail call ptr @xstrdup(ptr noundef %35) #14
  store ptr %36, ptr %34, align 8
  %37 = load ptr, ptr %22, align 8
  %38 = getelementptr inbounds nuw ptr, ptr %37, i64 %indvars.iv
  %39 = load ptr, ptr %38, align 8
  %40 = tail call ptr @xstrdup(ptr noundef %39) #14
  %41 = getelementptr inbounds nuw i8, ptr %34, i64 8
  store ptr %40, ptr %41, align 8
  %42 = load ptr, ptr %23, align 8
  %43 = getelementptr inbounds nuw i32, ptr %42, i64 %indvars.iv
  %44 = load i32, ptr %43, align 4
  %45 = getelementptr inbounds nuw i8, ptr %34, i64 16
  store i32 %44, ptr %45, align 8
  %46 = tail call i32 @get_log_level() #14
  %47 = icmp sgt i32 %46, 4
  br i1 %47, label %48, label %58

48:                                               ; preds = %24
  %49 = load ptr, ptr %21, align 8
  %50 = getelementptr inbounds nuw i32, ptr %49, i64 %indvars.iv
  %51 = load i32, ptr %50, align 4
  %52 = load ptr, ptr %23, align 8
  %53 = getelementptr inbounds nuw i32, ptr %52, i64 %indvars.iv
  %54 = load i32, ptr %53, align 4
  %55 = load ptr, ptr %22, align 8
  %56 = getelementptr inbounds nuw ptr, ptr %55, i64 %indvars.iv
  %57 = load ptr, ptr %56, align 8
  tail call void (i32, ptr, ...) @log_var(i32 noundef 5, ptr noundef nonnull @.str.5, i32 noundef %51, i32 noundef %54, ptr noundef %57) #14
  br label %58

58:                                               ; preds = %24, %48
  %indvars.iv.next = add nuw nsw i64 %indvars.iv, 1
  %59 = load i32, ptr %19, align 4
  %60 = zext i32 %59 to i64
  %61 = icmp samesign ult i64 %indvars.iv.next, %60
  br i1 %61, label %24, label %.loopexit, !llvm.loop !20

62:                                               ; preds = %3
  %63 = tail call i32 (ptr, ...) @error(ptr noundef nonnull @.str.6, i32 noundef %0) #14
  br label %.loopexit

.loopexit:                                        ; preds = %58, %18, %8, %10, %62
  ret void
}